target datalayout = "e-m:e-p270:32:32-p271:32:32-p272:64:64-i64:64-i128:128-f80:128-n8:16:32:64-S128"
target triple = "x86_64-pc-linux-gnu"

; Function Attrs: nounwind uwtable
define dso_local i32 @zzlCompareElements(ptr noundef %0, ptr noundef %1, i32 noundef %2) #0 {
  %4 = alloca i32, align 4
  %5 = alloca ptr, align 8
  %6 = alloca ptr, align 8
  %7 = alloca i32, align 4
  %8 = alloca ptr, align 8
  %9 = alloca i32, align 4
  %10 = alloca i64, align 8
  %11 = alloca [32 x i8], align 16
  %12 = alloca i32, align 4
  %13 = alloca i32, align 4
  %14 = alloca i32, align 4
  store ptr %0, ptr %5, align 8, !tbaa !11
  store ptr %1, ptr %6, align 8, !tbaa !11
  store i32 %2, ptr %7, align 4, !tbaa !5
  call void @llvm.lifetime.start.p0(i64 8, ptr %8) #12
  call void @llvm.lifetime.start.p0(i64 4, ptr %9) #12
  call void @llvm.lifetime.start.p0(i64 8, ptr %10) #12
  call void @llvm.lifetime.start.p0(i64 32, ptr %11) #12
  call void @llvm.lifetime.start.p0(i64 4, ptr %12) #12
  call void @llvm.lifetime.start.p0(i64 4, ptr %13) #12
  %15 = load ptr, ptr %5, align 8, !tbaa !11
  %16 = call ptr @lpGetValue(ptr noundef %15, ptr noundef %9, ptr noundef %10)
  store ptr %16, ptr %8, align 8, !tbaa !11
  %17 = load ptr, ptr %8, align 8, !tbaa !11
  %18 = icmp eq ptr %17, null
  br i1 %18, label %19, label %24

19:                                               ; preds = %3
  %20 = getelementptr inbounds [32 x i8], ptr %11, i64 0, i64 0
  %21 = load i64, ptr %10, align 8, !tbaa !99
  %22 = call i32 @ll2string(ptr noundef %20, i64 noundef 32, i64 noundef %21)
  store i32 %22, ptr %9, align 4, !tbaa !5
  %23 = getelementptr inbounds [32 x i8], ptr %11, i64 0, i64 0
  store ptr %23, ptr %8, align 8, !tbaa !11
  br label %24

24:                                               ; preds = %19, %3
  %25 = load i32, ptr %9, align 4, !tbaa !5
  %26 = load i32, ptr %7, align 4, !tbaa !5
  %27 = icmp ult i32 %25, %26
  br i1 %27, label %28, label %30

28:                                               ; preds = %24
  %29 = load i32, ptr %9, align 4, !tbaa !5
  br label %32

30:                                               ; preds = %24
  %31 = load i32, ptr %7, align 4, !tbaa !5
  br label %32

32:                                               ; preds = %30, %28
  %33 = phi i32 [ %29, %28 ], [ %31, %30 ]
  store i32 %33, ptr %12, align 4, !tbaa !5
  %34 = load ptr, ptr %8, align 8, !tbaa !11
  %35 = load ptr, ptr %6, align 8, !tbaa !11
  %36 = load i32, ptr %12, align 4, !tbaa !5
  %37 = sext i32 %36 to i64
  %38 = call i32 @memcmp(ptr noundef %34, ptr noundef %35, i64 noundef %37) #15
  store i32 %38, ptr %13, align 4, !tbaa !5
  %39 = load i32, ptr %13, align 4, !tbaa !5
  %40 = icmp eq i32 %39, 0
  br i1 %40, label %41, label %45

41:                                               ; preds = %32
  %42 = load i32, ptr %9, align 4, !tbaa !5
  %43 = load i32, ptr %7, align 4, !tbaa !5
  %44 = sub i32 %42, %43
  store i32 %44, ptr %4, align 4
  store i32 1, ptr %14, align 4
  br label %47

45:                                               ; preds = %32
  %46 = load i32, ptr %13, align 4, !tbaa !5
  store i32 %46, ptr %4, align 4
  store i32 1, ptr %14, align 4
  br label %47

47:                                               ; preds = %45, %41
  call void @llvm.lifetime.end.p0(i64 4, ptr %13) #12
  call void @llvm.lifetime.end.p0(i64 4, ptr %12) #12
  call void @llvm.lifetime.end.p0(i64 32, ptr %11) #12
  call void @llvm.lifetime.end.p0(i64 8, ptr %10) #12
  call void @llvm.lifetime.end.p0(i64 4, ptr %9) #12
  call void @llvm.lifetime.end.p0(i64 8, ptr %8) #12
  %48 = load i32, ptr %4, align 4
  ret i32 %48
}