; Function Attrs: nounwind uwtable
define dso_local i32 @zzlCompareElements(ptr noundef %0, ptr noundef readonly captures(none) %1, i32 noundef %2) local_unnamed_addr #0 {
  %4 = alloca i32, align 4
  %5 = alloca i64, align 8
  %6 = alloca [32 x i8], align 16
  call void @llvm.lifetime.start.p0(i64 4, ptr nonnull %4) #18
  call void @llvm.lifetime.start.p0(i64 8, ptr nonnull %5) #18
  call void @llvm.lifetime.start.p0(i64 32, ptr nonnull %6) #18
  %7 = call ptr @lpGetValue(ptr noundef %0, ptr noundef nonnull %4, ptr noundef nonnull %5) #18
  %8 = icmp eq ptr %7, null
  br i1 %8, label %9, label %._crit_edge

._crit_edge:                                      ; preds = %3
  %.pre = load i32, ptr %4, align 4, !tbaa !78
  br label %12

9:                                                ; preds = %3
  %10 = load i64, ptr %5, align 8, !tbaa !88
  %11 = call i32 @ll2string(ptr noundef nonnull %6, i64 noundef 32, i64 noundef %10) #18
  store i32 %11, ptr %4, align 4, !tbaa !78
  br label %12

12:                                               ; preds = %._crit_edge, %9
  %13 = phi i32 [ %11, %9 ], [ %.pre, %._crit_edge ]
  %.010 = phi ptr [ %6, %9 ], [ %7, %._crit_edge ]
  %14 = call i32 @llvm.umin.i32(i32 %13, i32 %2)
  %15 = sext i32 %14 to i64
  %16 = call i32 @memcmp(ptr noundef nonnull %.010, ptr noundef %1, i64 noundef %15) #20
  %17 = icmp eq i32 %16, 0
  %18 = sub i32 %13, %2
  %.0 = select i1 %17, i32 %18, i32 %16
  call void @llvm.lifetime.end.p0(i64 32, ptr nonnull %6) #18
  call void @llvm.lifetime.end.p0(i64 8, ptr nonnull %5) #18
  call void @llvm.lifetime.end.p0(i64 4, ptr nonnull %4) #18
  ret i32 %.0
}